; Function Attrs: nofree nosync nounwind memory(read, inaccessiblemem: none) uwtable
define internal double @alphasum(ptr noundef readonly %0, double noundef %1, double noundef %2) #7 {
  %4 = getelementptr inbounds nuw i8, ptr %0, i64 1088
  %5 = load ptr, ptr %4, align 8, !tbaa !60
  %6 = getelementptr inbounds nuw i8, ptr %5, i64 24
  %7 = load ptr, ptr %6, align 8, !tbaa !20
  %.not.i = icmp eq ptr %7, null
  br i1 %.not.i, label %getpix_integrate.exit, label %8

8:                                                ; preds = %3
  %9 = getelementptr inbounds nuw i8, ptr %5, i64 108
  %10 = load i32, ptr %9, align 4, !tbaa !99
  %11 = getelementptr inbounds nuw i8, ptr %5, i64 104
  %12 = load i32, ptr %11, align 8, !tbaa !100
  %13 = sub nsw i32 0, %12
  %14 = sitofp i32 %13 to double
  %15 = shl nsw i32 %12, 1
  %16 = sitofp i32 %15 to double
  %17 = fcmp nsz ogt double %1, %14
  %18 = select nsz i1 %17, double %1, double %14
  %19 = fcmp nsz ogt double %18, %16
  %..i36.i = select nsz i1 %19, double %16, double %18
  %20 = tail call i64 @llvm.lrint.i64.f64(double %..i36.i)
  %21 = trunc i64 %20 to i32
  %22 = sub nsw i32 0, %10
  %23 = sitofp i32 %22 to double
  %24 = shl nsw i32 %10, 1
  %25 = sitofp i32 %24 to double
  %26 = fcmp nsz ogt double %2, %23
  %27 = select nsz i1 %26, double %2, double %23
  %28 = fcmp nsz ogt double %27, %25
  %..i.i = select nsz i1 %28, double %25, double %27
  %29 = tail call i64 @llvm.lrint.i64.f64(double %..i.i)
  %30 = trunc i64 %29 to i32
  %31 = tail call nsz fastcc double @getpix_integrate_internal(ptr noundef nonnull readonly %0, i32 noundef %21, i32 noundef %30, i32 noundef 3, i32 noundef %12, i32 noundef %10)
  br label %getpix_integrate.exit

getpix_integrate.exit:                            ; preds = %3, %8
  %.0.i = phi nsz double [ %31, %8 ], [ 0.000000e+00, %3 ]
  ret double %.0.i
}